	.arch armv6
	.eabi_attribute 28, 1
	.eabi_attribute 20, 1
	.eabi_attribute 21, 1
	.eabi_attribute 23, 3
	.eabi_attribute 24, 1
	.eabi_attribute 25, 1
	.eabi_attribute 26, 2
	.eabi_attribute 30, 6
	.eabi_attribute 34, 1
	.eabi_attribute 18, 4
	.file	"HIL_mems.c"
	.text
.Ltext0:
	.cfi_sections	.debug_frame
	.align	2
	.global	HIL_malloc
	.syntax unified
	.arm
	.fpu vfp
	.type	HIL_malloc, %function
HIL_malloc:
.LFB2:
	.file 1 "./src/HIL_mems.c"
	.loc 1 64 0
	.cfi_startproc
	@ args = 0, pretend = 0, frame = 8
	@ frame_needed = 1, uses_anonymous_args = 0
	push	{fp, lr}
	.cfi_def_cfa_offset 8
	.cfi_offset 11, -8
	.cfi_offset 14, -4
	add	fp, sp, #4
	.cfi_def_cfa 11, 4
	sub	sp, sp, #8
	str	r0, [fp, #-8]
	.loc 1 67 0
	ldr	r0, [fp, #-8]
	bl	malloc
	mov	r3, r0
	.loc 1 69 0
	mov	r0, r3
	sub	sp, fp, #4
	.cfi_def_cfa 13, 8
	@ sp needed
	pop	{fp, pc}
	.cfi_endproc
.LFE2:
	.size	HIL_malloc, .-HIL_malloc
	.align	2
	.global	HIL_free
	.syntax unified
	.arm
	.fpu vfp
	.type	HIL_free, %function
HIL_free:
.LFB3:
	.loc 1 83 0
	.cfi_startproc
	@ args = 0, pretend = 0, frame = 16
	@ frame_needed = 1, uses_anonymous_args = 0
	push	{fp, lr}
	.cfi_def_cfa_offset 8
	.cfi_offset 11, -8
	.cfi_offset 14, -4
	add	fp, sp, #4
	.cfi_def_cfa 11, 4
	sub	sp, sp, #16
	str	r0, [fp, #-16]
	.loc 1 85 0
	mov	r3, #0
	str	r3, [fp, #-8]
	.loc 1 86 0
	ldr	r3, [fp, #-16]
	cmp	r3, #0
	beq	.L4
	.loc 1 86 0 is_stmt 0 discriminator 1
	ldr	r0, [fp, #-16]
	bl	free
	b	.L5
.L4:
	.loc 1 87 0 is_stmt 1
	mov	r3, #-2147483647
	str	r3, [fp, #-8]
.L5:
	.loc 1 90 0
	ldr	r3, [fp, #-8]
	.loc 1 92 0
	mov	r0, r3
	sub	sp, fp, #4
	.cfi_def_cfa 13, 8
	@ sp needed
	pop	{fp, pc}
	.cfi_endproc
.LFE3:
	.size	HIL_free, .-HIL_free
	.align	2
	.global	HIL_memset
	.syntax unified
	.arm
	.fpu vfp
	.type	HIL_memset, %function
HIL_memset:
.LFB4:
	.loc 1 106 0
	.cfi_startproc
	@ args = 0, pretend = 0, frame = 32
	@ frame_needed = 1, uses_anonymous_args = 0
	@ link register save eliminated.
	str	fp, [sp, #-4]!
	.cfi_def_cfa_offset 4
	.cfi_offset 11, -4
	add	fp, sp, #0
	.cfi_def_cfa_register 11
	sub	sp, sp, #36
	str	r0, [fp, #-24]
	str	r1, [fp, #-28]
	str	r2, [fp, #-32]
	.loc 1 109 0
	ldr	r3, [fp, #-24]
	str	r3, [fp, #-12]
	.loc 1 110 0
	mov	r3, #0
	str	r3, [fp, #-16]
	.loc 1 112 0
	mov	r3, #0
	str	r3, [fp, #-8]
	b	.L8
.L9:
	.loc 1 113 0 discriminator 3
	ldr	r3, [fp, #-28]
	sxtb	r2, r3
	ldr	r3, [fp, #-12]
	strb	r2, [r3]
	.loc 1 114 0 discriminator 3
	ldr	r3, [fp, #-12]
	add	r3, r3, #1
	str	r3, [fp, #-12]
	.loc 1 112 0 discriminator 3
	ldr	r3, [fp, #-8]
	add	r3, r3, #1
	str	r3, [fp, #-8]
.L8:
	.loc 1 112 0 is_stmt 0 discriminator 1
	ldr	r2, [fp, #-8]
	ldr	r3, [fp, #-32]
	cmp	r2, r3
	bcc	.L9
	.loc 1 119 0 is_stmt 1
	ldr	r3, [fp, #-16]
	.loc 1 121 0
	mov	r0, r3
	add	sp, fp, #0
	.cfi_def_cfa_register 13
	@ sp needed
	ldr	fp, [sp], #4
	.cfi_restore 11
	.cfi_def_cfa_offset 0
	bx	lr
	.cfi_endproc
.LFE4:
	.size	HIL_memset, .-HIL_memset
	.align	2
	.global	HIL_memcpy
	.syntax unified
	.arm
	.fpu vfp
	.type	HIL_memcpy, %function
HIL_memcpy:
.LFB5:
	.loc 1 135 0
	.cfi_startproc
	@ args = 0, pretend = 0, frame = 16
	@ frame_needed = 1, uses_anonymous_args = 0
	push	{fp, lr}
	.cfi_def_cfa_offset 8
	.cfi_offset 11, -8
	.cfi_offset 14, -4
	add	fp, sp, #4
	.cfi_def_cfa 11, 4
	sub	sp, sp, #16
	str	r0, [fp, #-8]
	str	r1, [fp, #-12]
	str	r2, [fp, #-16]
	.loc 1 139 0
	ldr	r2, [fp, #-16]
	ldr	r1, [fp, #-12]
	ldr	r0, [fp, #-8]
	bl	memcpy
	mov	r3, r0
	.loc 1 141 0
	mov	r0, r3
	sub	sp, fp, #4
	.cfi_def_cfa 13, 8
	@ sp needed
	pop	{fp, pc}
	.cfi_endproc
.LFE5:
	.size	HIL_memcpy, .-HIL_memcpy
.Letext0:
	.file 2 "/usr/lib/gcc/arm-linux-gnueabihf/6/include/stddef.h"
	.file 3 "/usr/include/arm-linux-gnueabihf/bits/types.h"
	.file 4 "/usr/include/libio.h"
	.file 5 "/usr/include/stdio.h"
	.file 6 "/usr/include/arm-linux-gnueabihf/bits/sys_errlist.h"
	.file 7 "../../hdr/HIL_types.h"
	.section	.note.GNU-stack,"",%progbits
