	.arch armv6
	.eabi_attribute 28, 1
	.eabi_attribute 20, 1
	.eabi_attribute 21, 1
	.eabi_attribute 23, 3
	.eabi_attribute 24, 1
	.eabi_attribute 25, 1
	.eabi_attribute 26, 2
	.eabi_attribute 30, 6
	.eabi_attribute 34, 1
	.eabi_attribute 18, 4
	.file	"bcm_gpio.c"
	.text
.Ltext0:
	.cfi_sections	.debug_frame
	.align	2
	.global	bcm_gpio_write
	.syntax unified
	.arm
	.fpu vfp
	.type	bcm_gpio_write, %function
bcm_gpio_write:
.LFB0:
	.file 1 "./src/bcm_gpio.c"
	.loc 1 8 0
	.cfi_startproc
	@ args = 0, pretend = 0, frame = 16
	@ frame_needed = 1, uses_anonymous_args = 0
	push	{fp, lr}
	.cfi_def_cfa_offset 8
	.cfi_offset 11, -8
	.cfi_offset 14, -4
	add	fp, sp, #4
	.cfi_def_cfa 11, 4
	sub	sp, sp, #16
	str	r0, [fp, #-16]
	str	r1, [fp, #-20]
	.loc 1 11 0
	bl	bcm2835_init
	mov	r3, r0
	str	r3, [fp, #-12]
	.loc 1 13 0
	ldr	r3, [fp, #-12]
	cmp	r3, #0
	bne	.L2
	.loc 1 13 0 is_stmt 0 discriminator 1
	mov	r3, #-2147483641
	str	r3, [fp, #-8]
.L2:
	.loc 1 14 0 is_stmt 1
	ldr	r3, [fp, #-8]
	cmp	r3, #0
	bge	.L3
	.loc 1 14 0 is_stmt 0 discriminator 1
	ldr	r3, [fp, #-8]
	b	.L4
.L3:
	.loc 1 16 0 is_stmt 1
	ldr	r3, [fp, #-16]
	uxtb	r3, r3
	mov	r1, #1
	mov	r0, r3
	bl	bcm2835_gpio_fsel
	.loc 1 18 0
	ldr	r3, [fp, #-16]
	uxtb	r3, r3
	ldr	r2, [fp, #-20]
	uxtb	r2, r2
	mov	r1, r2
	mov	r0, r3
	bl	bcm2835_gpio_write
	.loc 1 20 0
	bl	bcm2835_close
	mov	r3, r0
	str	r3, [fp, #-12]
	.loc 1 22 0
	ldr	r3, [fp, #-12]
.L4:
	.loc 1 23 0
	mov	r0, r3
	sub	sp, fp, #4
	.cfi_def_cfa 13, 8
	@ sp needed
	pop	{fp, pc}
	.cfi_endproc
.LFE0:
	.size	bcm_gpio_write, .-bcm_gpio_write
	.align	2
	.global	bcm_gpio_read
	.syntax unified
	.arm
	.fpu vfp
	.type	bcm_gpio_read, %function
bcm_gpio_read:
.LFB1:
	.loc 1 26 0
	.cfi_startproc
	@ args = 0, pretend = 0, frame = 16
	@ frame_needed = 1, uses_anonymous_args = 0
	push	{fp, lr}
	.cfi_def_cfa_offset 8
	.cfi_offset 11, -8
	.cfi_offset 14, -4
	add	fp, sp, #4
	.cfi_def_cfa 11, 4
	sub	sp, sp, #16
	str	r0, [fp, #-16]
	str	r1, [fp, #-20]
	.loc 1 29 0
	bl	bcm2835_init
	mov	r3, r0
	str	r3, [fp, #-12]
	.loc 1 31 0
	ldr	r3, [fp, #-12]
	cmp	r3, #0
	bne	.L6
	.loc 1 31 0 is_stmt 0 discriminator 1
	mov	r3, #-2147483641
	str	r3, [fp, #-8]
.L6:
	.loc 1 32 0 is_stmt 1
	ldr	r3, [fp, #-8]
	cmp	r3, #0
	bge	.L7
	.loc 1 32 0 is_stmt 0 discriminator 1
	ldr	r3, [fp, #-8]
	b	.L8
.L7:
	.loc 1 34 0 is_stmt 1
	ldr	r3, [fp, #-16]
	uxtb	r3, r3
	mov	r1, #0
	mov	r0, r3
	bl	bcm2835_gpio_fsel
	.loc 1 36 0
	ldr	r3, [fp, #-16]
	uxtb	r3, r3
	mov	r0, r3
	bl	bcm2835_gpio_lev
	mov	r3, r0
	mov	r2, r3
	ldr	r3, [fp, #-20]
	str	r2, [r3]
	.loc 1 38 0
	bl	bcm2835_close
	mov	r3, r0
	str	r3, [fp, #-12]
	.loc 1 40 0
	ldr	r3, [fp, #-12]
.L8:
	.loc 1 41 0
	mov	r0, r3
	sub	sp, fp, #4
	.cfi_def_cfa 13, 8
	@ sp needed
	pop	{fp, pc}
	.cfi_endproc
.LFE1:
	.size	bcm_gpio_read, .-bcm_gpio_read
.Letext0:
	.file 2 "../../hdr/HIL_types.h"
	.file 3 "/usr/include/stdint.h"
	.file 4 "/usr/local/include/bcm2835.h"
	.file 5 "/usr/lib/gcc/arm-linux-gnueabihf/6/include/stddef.h"
	.file 6 "/usr/include/arm-linux-gnueabihf/bits/types.h"
	.file 7 "/usr/include/libio.h"
	.file 8 "/usr/include/stdio.h"
	.file 9 "/usr/include/arm-linux-gnueabihf/bits/sys_errlist.h"
	.section	.note.GNU-stack,"",%progbits
