	.arch armv6
	.eabi_attribute 28, 1
	.eabi_attribute 20, 1
	.eabi_attribute 21, 1
	.eabi_attribute 23, 3
	.eabi_attribute 24, 1
	.eabi_attribute 25, 1
	.eabi_attribute 26, 2
	.eabi_attribute 30, 6
	.eabi_attribute 34, 1
	.eabi_attribute 18, 4
	.file	"HIL_gpio.c"
	.text
.Ltext0:
	.cfi_sections	.debug_frame
	.align	2
	.global	gpio_write
	.syntax unified
	.arm
	.fpu vfp
	.type	gpio_write, %function
gpio_write:
.LFB0:
	.file 1 "./src/HIL_gpio.c"
	.loc 1 8 0
	.cfi_startproc
	@ args = 0, pretend = 0, frame = 16
	@ frame_needed = 1, uses_anonymous_args = 0
	push	{fp, lr}
	.cfi_def_cfa_offset 8
	.cfi_offset 11, -8
	.cfi_offset 14, -4
	add	fp, sp, #4
	.cfi_def_cfa 11, 4
	sub	sp, sp, #16
	str	r0, [fp, #-16]
	str	r1, [fp, #-20]
	.loc 1 12 0
	ldr	r1, [fp, #-20]
	ldr	r0, [fp, #-16]
	bl	dev_gpio_write
	str	r0, [fp, #-8]
	.loc 1 15 0
	ldr	r3, [fp, #-8]
	.loc 1 16 0
	mov	r0, r3
	sub	sp, fp, #4
	.cfi_def_cfa 13, 8
	@ sp needed
	pop	{fp, pc}
	.cfi_endproc
.LFE0:
	.size	gpio_write, .-gpio_write
	.align	2
	.global	gpio_read
	.syntax unified
	.arm
	.fpu vfp
	.type	gpio_read, %function
gpio_read:
.LFB1:
	.loc 1 18 0
	.cfi_startproc
	@ args = 0, pretend = 0, frame = 16
	@ frame_needed = 1, uses_anonymous_args = 0
	push	{fp, lr}
	.cfi_def_cfa_offset 8
	.cfi_offset 11, -8
	.cfi_offset 14, -4
	add	fp, sp, #4
	.cfi_def_cfa 11, 4
	sub	sp, sp, #16
	str	r0, [fp, #-16]
	str	r1, [fp, #-20]
	.loc 1 22 0
	ldr	r1, [fp, #-20]
	ldr	r0, [fp, #-16]
	bl	dev_gpio_read
	str	r0, [fp, #-8]
	.loc 1 25 0
	ldr	r3, [fp, #-8]
	.loc 1 26 0
	mov	r0, r3
	sub	sp, fp, #4
	.cfi_def_cfa 13, 8
	@ sp needed
	pop	{fp, pc}
	.cfi_endproc
.LFE1:
	.size	gpio_read, .-gpio_read
.Letext0:
	.file 2 "../../hdr/HIL_types.h"
	.section	.note.GNU-stack,"",%progbits
