	.arch armv6
	.eabi_attribute 28, 1
	.eabi_attribute 20, 1
	.eabi_attribute 21, 1
	.eabi_attribute 23, 3
	.eabi_attribute 24, 1
	.eabi_attribute 25, 1
	.eabi_attribute 26, 2
	.eabi_attribute 30, 6
	.eabi_attribute 34, 1
	.eabi_attribute 18, 4
	.file	"main.c"
	.text
.Ltext0:
	.cfi_sections	.debug_frame
	.section	.rodata
	.align	2
.LC0:
	.ascii	"-h\000"
	.align	2
.LC1:
	.ascii	"-r\000"
	.align	2
.LC2:
	.ascii	"-w\000"
	.align	2
.LC3:
	.ascii	"Pin #%u has written as %d\012\000"
	.align	2
.LC4:
	.ascii	"Pin #%u value is %u\012\000"
	.text
	.align	2
	.global	main
	.syntax unified
	.arm
	.fpu vfp
	.type	main, %function
main:
.LFB2:
	.file 1 "./src/main.c"
	.loc 1 14 0
	.cfi_startproc
	@ args = 0, pretend = 0, frame = 24
	@ frame_needed = 1, uses_anonymous_args = 0
	push	{fp, lr}
	.cfi_def_cfa_offset 8
	.cfi_offset 11, -8
	.cfi_offset 14, -4
	add	fp, sp, #4
	.cfi_def_cfa 11, 4
	sub	sp, sp, #24
	str	r0, [fp, #-24]
	str	r1, [fp, #-28]
	.loc 1 15 0
	mov	r3, #0
	str	r3, [fp, #-8]
	.loc 1 16 0
	mov	r3, #0
	str	r3, [fp, #-20]
	.loc 1 17 0
	mvn	r3, #0
	str	r3, [fp, #-12]
	.loc 1 18 0
	mov	r3, #0
	str	r3, [fp, #-16]
	.loc 1 21 0
	ldr	r3, [fp, #-24]
	cmp	r3, #2
	beq	.L2
	.loc 1 21 0 is_stmt 0 discriminator 1
	ldr	r3, [fp, #-24]
	cmp	r3, #3
	beq	.L2
	.loc 1 21 0 discriminator 2
	ldr	r3, [fp, #-24]
	cmp	r3, #4
	beq	.L2
	.loc 1 22 0 is_stmt 1
	bl	print_usage
	.loc 1 23 0
	mov	r0, #-2147483647
	bl	assert
.L2:
.LBB2:
	.loc 1 26 0
	ldr	r3, [fp, #-28]
	add	r3, r3, #4
	ldr	r3, [r3]
	mov	r2, #3
	ldr	r1, .L17
	mov	r0, r3
	bl	strncmp
	mov	r3, r0
	cmp	r3, #0
	bne	.L3
	.loc 1 27 0
	bl	print_full_usage
	.loc 1 28 0
	mov	r3, #0
	b	.L16
.L3:
.LBE2:
.LBB3:
	.loc 1 31 0
	ldr	r3, [fp, #-28]
	add	r3, r3, #4
	ldr	r3, [r3]
	mov	r2, #3
	ldr	r1, .L17+4
	mov	r0, r3
	bl	strncmp
	mov	r3, r0
	cmp	r3, #0
	bne	.L5
	.loc 1 31 0 is_stmt 0 discriminator 1
	ldr	r3, [fp, #-24]
	cmp	r3, #3
	beq	.L5
	.loc 1 32 0 is_stmt 1
	bl	print_usage
	.loc 1 33 0
	mov	r0, #-2147483647
	bl	assert
.L5:
.LBE3:
.LBB4:
	.loc 1 36 0
	ldr	r3, [fp, #-28]
	add	r3, r3, #4
	ldr	r3, [r3]
	mov	r2, #3
	ldr	r1, .L17+8
	mov	r0, r3
	bl	strncmp
	mov	r3, r0
	cmp	r3, #0
	bne	.L6
	.loc 1 36 0 is_stmt 0 discriminator 1
	ldr	r3, [fp, #-24]
	cmp	r3, #4
	beq	.L6
	.loc 1 37 0 is_stmt 1
	bl	print_usage
	.loc 1 38 0
	mov	r0, #-2147483647
	bl	assert
.L6:
.LBE4:
.LBB5:
	.loc 1 43 0
	ldr	r3, [fp, #-28]
	add	r3, r3, #4
	ldr	r3, [r3]
	mov	r2, #3
	ldr	r1, .L17+4
	mov	r0, r3
	bl	strncmp
	mov	r3, r0
	cmp	r3, #0
	bne	.L7
	.loc 1 44 0
	ldr	r3, [fp, #-28]
	add	r3, r3, #8
	ldr	r3, [r3]
	mov	r0, r3
	bl	atoi
	mov	r3, r0
	str	r3, [fp, #-8]
	.loc 1 47 0
	ldr	r3, [fp, #-8]
	cmp	r3, #31
	bls	.L9
	.loc 1 48 0
	bl	print_usage
	.loc 1 49 0
	mov	r0, #-2147483647
	bl	assert
	b	.L9
.L7:
	.loc 1 51 0
	ldr	r3, [fp, #-28]
	add	r3, r3, #4
	ldr	r3, [r3]
	mov	r2, #3
	ldr	r1, .L17+8
	mov	r0, r3
	bl	strncmp
	mov	r3, r0
	cmp	r3, #0
	bne	.L9
	.loc 1 52 0
	ldr	r3, [fp, #-28]
	add	r3, r3, #8
	ldr	r3, [r3]
	mov	r0, r3
	bl	atoi
	mov	r3, r0
	str	r3, [fp, #-8]
	.loc 1 53 0
	ldr	r3, [fp, #-28]
	add	r3, r3, #12
	ldr	r3, [r3]
	mov	r0, r3
	bl	atoi
	str	r0, [fp, #-12]
	.loc 1 56 0
	ldr	r3, [fp, #-8]
	cmp	r3, #31
	bls	.L10
	.loc 1 57 0
	bl	print_usage
	.loc 1 58 0
	mov	r0, #-2147483647
	bl	assert
.L10:
	.loc 1 60 0
	ldr	r3, [fp, #-12]
	cmp	r3, #0
	beq	.L9
	.loc 1 60 0 is_stmt 0 discriminator 1
	ldr	r3, [fp, #-12]
	cmp	r3, #1
	beq	.L9
	.loc 1 61 0 is_stmt 1
	bl	print_usage
	.loc 1 62 0
	mov	r0, #-2147483647
	bl	assert
.L9:
.LBE5:
	.loc 1 67 0
	ldr	r3, [fp, #-12]
	cmp	r3, #0
	blt	.L11
.LBB6:
	.loc 1 68 0
	ldr	r3, [fp, #-12]
	mov	r1, r3
	ldr	r0, [fp, #-8]
	bl	gpio_write
	mov	r3, r0
	str	r3, [fp, #-16]
.LBE6:
	b	.L12
.L11:
.LBB7:
	.loc 1 70 0
	sub	r3, fp, #20
	mov	r1, r3
	ldr	r0, [fp, #-8]
	bl	gpio_read
	mov	r3, r0
	str	r3, [fp, #-16]
.L12:
.LBE7:
	.loc 1 74 0
	ldr	r3, [fp, #-16]
	cmp	r3, #0
	bne	.L13
	.loc 1 75 0
	ldr	r0, [fp, #-16]
	bl	assert
.L13:
	.loc 1 79 0
	ldr	r3, [fp, #-12]
	cmp	r3, #0
	blt	.L14
	.loc 1 80 0
	ldr	r3, .L17+12
	ldr	r0, [r3]
	ldr	r3, [fp, #-12]
	ldr	r2, [fp, #-8]
	ldr	r1, .L17+16
	bl	fprintf
	b	.L15
.L14:
	.loc 1 82 0
	ldr	r3, .L17+12
	ldr	r0, [r3]
	ldr	r3, [fp, #-20]
	ldr	r2, [fp, #-8]
	ldr	r1, .L17+20
	bl	fprintf
.L15:
	.loc 1 85 0
	ldr	r3, [fp, #-16]
.L16:
	.loc 1 86 0 discriminator 1
	mov	r0, r3
	sub	sp, fp, #4
	.cfi_def_cfa 13, 8
	@ sp needed
	pop	{fp, pc}
.L18:
	.align	2
.L17:
	.word	.LC0
	.word	.LC1
	.word	.LC2
	.word	stdout
	.word	.LC3
	.word	.LC4
	.cfi_endproc
.LFE2:
	.size	main, .-main
	.section	.rodata
	.align	2
.LC5:
	.ascii	"Usage: <-w/-r/-h> <pin> [<value>]\012\000"
	.text
	.align	2
	.global	print_usage
	.syntax unified
	.arm
	.fpu vfp
	.type	print_usage, %function
print_usage:
.LFB3:
	.loc 1 91 0
	.cfi_startproc
	@ args = 0, pretend = 0, frame = 0
	@ frame_needed = 1, uses_anonymous_args = 0
	push	{fp, lr}
	.cfi_def_cfa_offset 8
	.cfi_offset 11, -8
	.cfi_offset 14, -4
	add	fp, sp, #4
	.cfi_def_cfa 11, 4
	.loc 1 92 0
	ldr	r3, .L20
	ldr	r3, [r3]
	mov	r2, #34
	mov	r1, #1
	ldr	r0, .L20+4
	bl	fwrite
	.loc 1 93 0
	nop
	pop	{fp, pc}
.L21:
	.align	2
.L20:
	.word	stdout
	.word	.LC5
	.cfi_endproc
.LFE3:
	.size	print_usage, .-print_usage
	.section	.rodata
	.align	2
.LC6:
	.ascii	"Usage\012\000"
	.align	2
.LC7:
	.ascii	"\011./gpio -w <pin> [<value>]\012\000"
	.align	2
.LC8:
	.ascii	"\011./gpio -r <pin>\012\000"
	.align	2
.LC9:
	.ascii	"\011./gpio -h\012\000"
	.align	2
.LC10:
	.ascii	"\012\011Pin number must be in 0~28\012\000"
	.align	2
.LC11:
	.ascii	"\011Write value must be in 0 or 1\012\000"
	.text
	.align	2
	.global	print_full_usage
	.syntax unified
	.arm
	.fpu vfp
	.type	print_full_usage, %function
print_full_usage:
.LFB4:
	.loc 1 98 0
	.cfi_startproc
	@ args = 0, pretend = 0, frame = 0
	@ frame_needed = 1, uses_anonymous_args = 0
	push	{fp, lr}
	.cfi_def_cfa_offset 8
	.cfi_offset 11, -8
	.cfi_offset 14, -4
	add	fp, sp, #4
	.cfi_def_cfa 11, 4
	.loc 1 99 0
	ldr	r3, .L23
	ldr	r3, [r3]
	mov	r2, #6
	mov	r1, #1
	ldr	r0, .L23+4
	bl	fwrite
	.loc 1 100 0
	ldr	r3, .L23
	ldr	r3, [r3]
	mov	r2, #27
	mov	r1, #1
	ldr	r0, .L23+8
	bl	fwrite
	.loc 1 101 0
	ldr	r3, .L23
	ldr	r3, [r3]
	mov	r2, #17
	mov	r1, #1
	ldr	r0, .L23+12
	bl	fwrite
	.loc 1 102 0
	ldr	r3, .L23
	ldr	r3, [r3]
	mov	r2, #11
	mov	r1, #1
	ldr	r0, .L23+16
	bl	fwrite
	.loc 1 103 0
	ldr	r3, .L23
	ldr	r3, [r3]
	mov	r2, #29
	mov	r1, #1
	ldr	r0, .L23+20
	bl	fwrite
	.loc 1 104 0
	ldr	r3, .L23
	ldr	r3, [r3]
	mov	r2, #31
	mov	r1, #1
	ldr	r0, .L23+24
	bl	fwrite
	.loc 1 105 0
	nop
	pop	{fp, pc}
.L24:
	.align	2
.L23:
	.word	stdout
	.word	.LC6
	.word	.LC7
	.word	.LC8
	.word	.LC9
	.word	.LC10
	.word	.LC11
	.cfi_endproc
.LFE4:
	.size	print_full_usage, .-print_full_usage
	.section	.rodata
	.align	2
.LC12:
	.ascii	"Error occurred [Error code: %x].\012\000"
	.text
	.align	2
	.global	assert
	.syntax unified
	.arm
	.fpu vfp
	.type	assert, %function
assert:
.LFB5:
	.loc 1 107 0
	.cfi_startproc
	@ args = 0, pretend = 0, frame = 8
	@ frame_needed = 1, uses_anonymous_args = 0
	push	{fp, lr}
	.cfi_def_cfa_offset 8
	.cfi_offset 11, -8
	.cfi_offset 14, -4
	add	fp, sp, #4
	.cfi_def_cfa 11, 4
	sub	sp, sp, #8
	str	r0, [fp, #-8]
	.loc 1 109 0
	ldr	r3, [fp, #-8]
	cmp	r3, #0
	bge	.L26
	.loc 1 110 0
	ldr	r3, .L27
	ldr	r3, [r3]
	ldr	r2, [fp, #-8]
	ldr	r1, .L27+4
	mov	r0, r3
	bl	fprintf
.L26:
	.loc 1 113 0
	ldr	r3, [fp, #-8]
	mov	r0, r3
	bl	exit
.L28:
	.align	2
.L27:
	.word	stderr
	.word	.LC12
	.cfi_endproc
.LFE5:
	.size	assert, .-assert
.Letext0:
	.file 2 "/usr/lib/gcc/arm-linux-gnueabihf/6/include/stddef.h"
	.file 3 "/usr/include/arm-linux-gnueabihf/bits/types.h"
	.file 4 "/usr/include/libio.h"
	.file 5 "/usr/include/stdio.h"
	.file 6 "/usr/include/arm-linux-gnueabihf/bits/sys_errlist.h"
	.file 7 "../../hdr/HIL_types.h"
	.file 8 "/usr/include/signal.h"
	.file 9 "<built-in>"
	.section	.note.GNU-stack,"",%progbits
